ARM GAS  C:\Users\Labeo\AppData\Local\Temp\cc1FUKsk.s 			page 1


   1              		.syntax unified
   2              		.cpu cortex-m4
   3              		.eabi_attribute 27, 1
   4              		.fpu fpv4-sp-d16
   5              		.eabi_attribute 20, 1
   6              		.eabi_attribute 21, 1
   7              		.eabi_attribute 23, 3
   8              		.eabi_attribute 24, 1
   9              		.eabi_attribute 25, 1
  10              		.eabi_attribute 26, 1
  11              		.eabi_attribute 30, 1
  12              		.eabi_attribute 34, 1
  13              		.eabi_attribute 18, 4
  14              		.thumb
  15              		.syntax unified
  16              		.file	"main_cm4.c"
  17              		.text
  18              	.Ltext0:
  19              		.cfi_sections	.debug_frame
  20              		.section	.text.UpdateDisplay,"ax",%progbits
  21              		.align	2
  22              		.global	UpdateDisplay
  23              		.thumb
  24              		.thumb_func
  25              		.type	UpdateDisplay, %function
  26              	UpdateDisplay:
  27              	.LFB557:
  28              		.file 1 "main_cm4.c"
   1:main_cm4.c    **** /******************************************************************************
   2:main_cm4.c    **** * File Name: main_cm4.c
   3:main_cm4.c    **** *
   4:main_cm4.c    **** * Version: 1.2
   5:main_cm4.c    **** *
   6:main_cm4.c    **** * Description: This file main application code for the CE223727 EmWin Graphics
   7:main_cm4.c    **** *				library EInk Display 
   8:main_cm4.c    **** 
   9:main_cm4.c    **** ********************************************************************************
  10:main_cm4.c    **** *************MODIFIED by Christophe Cloutier-Tremblay.**************************
  11:main_cm4.c    **** ********************************************************************************
  12:main_cm4.c    **** * 
  13:main_cm4.c    **** *
  14:main_cm4.c    **** * Hardware Dependency: CY8CKIT-028-EPD E-Ink Display Shield
  15:main_cm4.c    **** *					   CY8CKIT-062-BLE PSoC6 BLE Pioneer Kit
  16:main_cm4.c    **** *
  17:main_cm4.c    **** ******************************************************************************* 
  18:main_cm4.c    **** * Copyright (2019), Cypress Semiconductor Corporation. All rights reserved. 
  19:main_cm4.c    **** ******************************************************************************* 
  20:main_cm4.c    **** * This software, including source code, documentation and related materials 
  21:main_cm4.c    **** * (“Software”), is owned by Cypress Semiconductor Corporation or one of its 
  22:main_cm4.c    **** * subsidiaries (“Cypress”) and is protected by and subject to worldwide patent 
  23:main_cm4.c    **** * protection (United States and foreign), United States copyright laws and 
  24:main_cm4.c    **** * international treaty provisions. Therefore, you may use this Software only 
  25:main_cm4.c    **** * as provided in the license agreement accompanying the software package from 
  26:main_cm4.c    **** * which you obtained this Software (“EULA”). 
  27:main_cm4.c    **** * 
  28:main_cm4.c    **** * If no EULA applies, Cypress hereby grants you a personal, non-exclusive, 
  29:main_cm4.c    **** * non-transferable license to copy, modify, and compile the Software source 
ARM GAS  C:\Users\Labeo\AppData\Local\Temp\cc1FUKsk.s 			page 2


  30:main_cm4.c    **** * code solely for use in connection with Cypress’s integrated circuit products. 
  31:main_cm4.c    **** * Any reproduction, modification, translation, compilation, or representation 
  32:main_cm4.c    **** * of this Software except as specified above is prohibited without the express 
  33:main_cm4.c    **** * written permission of Cypress. 
  34:main_cm4.c    **** * 
  35:main_cm4.c    **** * Disclaimer: THIS SOFTWARE IS PROVIDED AS-IS, WITH NO WARRANTY OF ANY KIND, 
  36:main_cm4.c    **** * EXPRESS OR IMPLIED, INCLUDING, BUT NOT LIMITED TO, NONINFRINGEMENT, IMPLIED 
  37:main_cm4.c    **** * WARRANTIES OF MERCHANTABILITY AND FITNESS FOR A PARTICULAR PURPOSE. Cypress 
  38:main_cm4.c    **** * reserves the right to make changes to the Software without notice. Cypress 
  39:main_cm4.c    **** * does not assume any liability arising out of the application or use of the 
  40:main_cm4.c    **** * Software or any product or circuit described in the Software. Cypress does 
  41:main_cm4.c    **** * not authorize its products for use in any products where a malfunction or 
  42:main_cm4.c    **** * failure of the Cypress product may reasonably be expected to result in 
  43:main_cm4.c    **** * significant property damage, injury or death (“High Risk Product”). By 
  44:main_cm4.c    **** * including Cypress’s product in a High Risk Product, the manufacturer of such 
  45:main_cm4.c    **** * system or application assumes all risk of such use and in doing so agrees to 
  46:main_cm4.c    **** * indemnify Cypress against all liability.
  47:main_cm4.c    **** ********************************************************************************/
  48:main_cm4.c    **** 
  49:main_cm4.c    **** #include "project.h"
  50:main_cm4.c    **** #include "GUI.h"
  51:main_cm4.c    **** #include "pervasive_eink_hardware_driver.h"
  52:main_cm4.c    **** #include "cy_eink_library.h"
  53:main_cm4.c    **** #include "LCDConf.h"
  54:main_cm4.c    **** #include <stdlib.h>
  55:main_cm4.c    **** 
  56:main_cm4.c    **** //vecteur sinus de 150 élément entre -1 et 1
  57:main_cm4.c    **** float vectorSinus[]={0.099833,0.29552,0.47943,0.64422,0.78333,0.89121,0.96356,0.99749,0.99166,0.946
  58:main_cm4.c    **** 
  59:main_cm4.c    **** /* Image buffer cache */
  60:main_cm4.c    **** uint8 imageBufferCache[CY_EINK_FRAME_SIZE] = {0};
  61:main_cm4.c    **** 
  62:main_cm4.c    **** /*******************************************************************************
  63:main_cm4.c    **** * Function Name: void UpdateDisplay(void)
  64:main_cm4.c    **** ********************************************************************************
  65:main_cm4.c    **** *
  66:main_cm4.c    **** * Summary: This function updates the display with the data in the display 
  67:main_cm4.c    **** *			buffer.  The function first transfers the content of the EmWin
  68:main_cm4.c    **** *			display buffer to the primary EInk display buffer.  Then it calls
  69:main_cm4.c    **** *			the Cy_EINK_ShowFrame function to update the display, and then
  70:main_cm4.c    **** *			it copies the EmWin display buffer to the Eink display cache buffer
  71:main_cm4.c    **** *
  72:main_cm4.c    **** * Parameters:
  73:main_cm4.c    **** *  None
  74:main_cm4.c    **** *
  75:main_cm4.c    **** * Return:
  76:main_cm4.c    **** *  None
  77:main_cm4.c    **** *
  78:main_cm4.c    **** * Side Effects:
  79:main_cm4.c    **** *  It takes about a second to refresh the display.  This is a blocking function
  80:main_cm4.c    **** *  and only returns after the display refresh
  81:main_cm4.c    **** *
  82:main_cm4.c    **** *******************************************************************************/
  83:main_cm4.c    **** void UpdateDisplay(cy_eink_update_t updateMethod, bool powerCycle)
  84:main_cm4.c    **** {
  29              		.loc 1 84 0
  30              		.cfi_startproc
ARM GAS  C:\Users\Labeo\AppData\Local\Temp\cc1FUKsk.s 			page 3


  31              		@ args = 0, pretend = 0, frame = 0
  32              		@ frame_needed = 0, uses_anonymous_args = 0
  33              	.LVL0:
  34 0000 F8B5     		push	{r3, r4, r5, r6, r7, lr}
  35              		.cfi_def_cfa_offset 24
  36              		.cfi_offset 3, -24
  37              		.cfi_offset 4, -20
  38              		.cfi_offset 5, -16
  39              		.cfi_offset 6, -12
  40              		.cfi_offset 7, -8
  41              		.cfi_offset 14, -4
  42 0002 0646     		mov	r6, r0
  43 0004 0F46     		mov	r7, r1
  85:main_cm4.c    ****     cy_eink_frame_t* pEmwinBuffer;
  86:main_cm4.c    **** 
  87:main_cm4.c    ****     /* Get the pointer to Emwin's display buffer */
  88:main_cm4.c    ****     pEmwinBuffer = (cy_eink_frame_t*)LCD_GetDisplayBuffer();
  44              		.loc 1 88 0
  45 0006 FFF7FEFF 		bl	LCD_GetDisplayBuffer
  46              	.LVL1:
  47 000a 0546     		mov	r5, r0
  48              	.LVL2:
  89:main_cm4.c    **** 
  90:main_cm4.c    ****     /* Update the EInk display */
  91:main_cm4.c    ****     Cy_EINK_ShowFrame(imageBufferCache, pEmwinBuffer, updateMethod, powerCycle);
  49              		.loc 1 91 0
  50 000c 064C     		ldr	r4, .L3
  51 000e 3B46     		mov	r3, r7
  52 0010 3246     		mov	r2, r6
  53 0012 0146     		mov	r1, r0
  54 0014 2046     		mov	r0, r4
  55              	.LVL3:
  56 0016 FFF7FEFF 		bl	Cy_EINK_ShowFrame
  57              	.LVL4:
  92:main_cm4.c    **** 
  93:main_cm4.c    ****     /* Copy the EmWin display buffer to the imageBuffer cache*/
  94:main_cm4.c    ****     memcpy(imageBufferCache, pEmwinBuffer, CY_EINK_FRAME_SIZE);
  58              		.loc 1 94 0
  59 001a 41F2B062 		movw	r2, #5808
  60 001e 2946     		mov	r1, r5
  61 0020 2046     		mov	r0, r4
  62 0022 FFF7FEFF 		bl	memcpy
  63              	.LVL5:
  64 0026 F8BD     		pop	{r3, r4, r5, r6, r7, pc}
  65              	.LVL6:
  66              	.L4:
  67              		.align	2
  68              	.L3:
  69 0028 00000000 		.word	.LANCHOR0
  70              		.cfi_endproc
  71              	.LFE557:
  72              		.size	UpdateDisplay, .-UpdateDisplay
  73              		.section	.text.ClearScreen,"ax",%progbits
  74              		.align	2
  75              		.global	ClearScreen
  76              		.thumb
  77              		.thumb_func
ARM GAS  C:\Users\Labeo\AppData\Local\Temp\cc1FUKsk.s 			page 4


  78              		.type	ClearScreen, %function
  79              	ClearScreen:
  80              	.LFB558:
  95:main_cm4.c    **** }
  96:main_cm4.c    **** 
  97:main_cm4.c    **** 
  98:main_cm4.c    **** /*******************************************************************************
  99:main_cm4.c    **** * Function Name: void ClearScreen(void)
 100:main_cm4.c    **** ********************************************************************************
 101:main_cm4.c    **** *
 102:main_cm4.c    **** * Summary: This function clears the screen
 103:main_cm4.c    **** *
 104:main_cm4.c    **** * Parameters:
 105:main_cm4.c    **** *  None
 106:main_cm4.c    **** *
 107:main_cm4.c    **** * Return:
 108:main_cm4.c    **** *  None
 109:main_cm4.c    **** *
 110:main_cm4.c    **** *******************************************************************************/
 111:main_cm4.c    **** void ClearScreen(void)
 112:main_cm4.c    **** {
  81              		.loc 1 112 0
  82              		.cfi_startproc
  83              		@ args = 0, pretend = 0, frame = 0
  84              		@ frame_needed = 0, uses_anonymous_args = 0
  85 0000 08B5     		push	{r3, lr}
  86              		.cfi_def_cfa_offset 8
  87              		.cfi_offset 3, -8
  88              		.cfi_offset 14, -4
 113:main_cm4.c    ****     GUI_SetColor(GUI_BLACK);
  89              		.loc 1 113 0
  90 0002 0020     		movs	r0, #0
  91 0004 FFF7FEFF 		bl	GUI_SetColor
  92              	.LVL7:
 114:main_cm4.c    ****     GUI_SetBkColor(GUI_WHITE);
  93              		.loc 1 114 0
  94 0008 6FF07F40 		mvn	r0, #-16777216
  95 000c FFF7FEFF 		bl	GUI_SetBkColor
  96              	.LVL8:
 115:main_cm4.c    ****     GUI_Clear();
  97              		.loc 1 115 0
  98 0010 FFF7FEFF 		bl	GUI_Clear
  99              	.LVL9:
 116:main_cm4.c    ****     UpdateDisplay(CY_EINK_FULL_4STAGE, true);
 100              		.loc 1 116 0
 101 0014 0121     		movs	r1, #1
 102 0016 0846     		mov	r0, r1
 103 0018 FFF7FEFF 		bl	UpdateDisplay
 104              	.LVL10:
 105 001c 08BD     		pop	{r3, pc}
 106              		.cfi_endproc
 107              	.LFE558:
 108              		.size	ClearScreen, .-ClearScreen
 109 001e 00BF     		.section	.text.WaitforSwitchPressAndRelease,"ax",%progbits
 110              		.align	2
 111              		.global	WaitforSwitchPressAndRelease
 112              		.thumb
ARM GAS  C:\Users\Labeo\AppData\Local\Temp\cc1FUKsk.s 			page 5


 113              		.thumb_func
 114              		.type	WaitforSwitchPressAndRelease, %function
 115              	WaitforSwitchPressAndRelease:
 116              	.LFB559:
 117:main_cm4.c    **** }
 118:main_cm4.c    **** /*******************************************************************************
 119:main_cm4.c    **** * Function Name: void WaitforSwitchPressAndRelease(void)
 120:main_cm4.c    **** ********************************************************************************
 121:main_cm4.c    **** *
 122:main_cm4.c    **** * Summary: This implements a simple "Wait for button press and release"
 123:main_cm4.c    **** *			function.  It first waits for the button to be pressed and then
 124:main_cm4.c    **** *			waits for the button to be released.
 125:main_cm4.c    **** *
 126:main_cm4.c    **** * Parameters:
 127:main_cm4.c    **** *  None
 128:main_cm4.c    **** *
 129:main_cm4.c    **** * Return:
 130:main_cm4.c    **** *  None
 131:main_cm4.c    **** *
 132:main_cm4.c    **** * Side Effects:
 133:main_cm4.c    **** *  This is a blocking function and exits only on a button press and release
 134:main_cm4.c    **** *
 135:main_cm4.c    **** *******************************************************************************/
 136:main_cm4.c    **** void WaitforSwitchPressAndRelease(void)
 137:main_cm4.c    **** {
 117              		.loc 1 137 0
 118              		.cfi_startproc
 119              		@ args = 0, pretend = 0, frame = 0
 120              		@ frame_needed = 0, uses_anonymous_args = 0
 121 0000 08B5     		push	{r3, lr}
 122              		.cfi_def_cfa_offset 8
 123              		.cfi_offset 3, -8
 124              		.cfi_offset 14, -4
 125              	.L8:
 138:main_cm4.c    ****     /* Wait for SW2 to be pressed */
 139:main_cm4.c    ****     while(Status_SW2_Read() != 0);
 126              		.loc 1 139 0 discriminator 1
 127 0002 FFF7FEFF 		bl	Status_SW2_Read
 128              	.LVL11:
 129 0006 0028     		cmp	r0, #0
 130 0008 FBD1     		bne	.L8
 131              	.L9:
 140:main_cm4.c    ****     
 141:main_cm4.c    ****     /* Wait for SW2 to be released */
 142:main_cm4.c    ****     while(Status_SW2_Read() == 0);
 132              		.loc 1 142 0 discriminator 1
 133 000a FFF7FEFF 		bl	Status_SW2_Read
 134              	.LVL12:
 135 000e 0028     		cmp	r0, #0
 136 0010 FBD0     		beq	.L9
 143:main_cm4.c    **** }
 137              		.loc 1 143 0
 138 0012 08BD     		pop	{r3, pc}
 139              		.cfi_endproc
 140              	.LFE559:
 141              		.size	WaitforSwitchPressAndRelease, .-WaitforSwitchPressAndRelease
 142              		.section	.text.main,"ax",%progbits
ARM GAS  C:\Users\Labeo\AppData\Local\Temp\cc1FUKsk.s 			page 6


 143              		.align	2
 144              		.global	main
 145              		.thumb
 146              		.thumb_func
 147              		.type	main, %function
 148              	main:
 149              	.LFB560:
 144:main_cm4.c    **** 
 145:main_cm4.c    **** /*******************************************************************************
 146:main_cm4.c    **** * Function Name: int main(void)
 147:main_cm4.c    **** ********************************************************************************
 148:main_cm4.c    **** *
 149:main_cm4.c    **** * Summary: À Remplir
 150:main_cm4.c    **** *
 151:main_cm4.c    **** * Parameters:
 152:main_cm4.c    **** *  None
 153:main_cm4.c    **** *
 154:main_cm4.c    **** * Return:
 155:main_cm4.c    **** *  None
 156:main_cm4.c    **** *
 157:main_cm4.c    **** *******************************************************************************/
 158:main_cm4.c    **** int main(void)
 159:main_cm4.c    **** {
 150              		.loc 1 159 0
 151              		.cfi_startproc
 152              		@ Volatile: function does not return.
 153              		@ args = 0, pretend = 0, frame = 0
 154              		@ frame_needed = 0, uses_anonymous_args = 0
 155 0000 08B5     		push	{r3, lr}
 156              		.cfi_def_cfa_offset 8
 157              		.cfi_offset 3, -8
 158              		.cfi_offset 14, -4
 159              	.LBB4:
 160              	.LBB5:
 161              		.file 2 "Generated_Source\\PSoC6\\pdl\\cmsis/include/cmsis_gcc.h"
   1:Generated_Source\PSoC6\pdl\cmsis/include/cmsis_gcc.h **** /**************************************************************************//**
   2:Generated_Source\PSoC6\pdl\cmsis/include/cmsis_gcc.h ****  * @file     cmsis_gcc.h
   3:Generated_Source\PSoC6\pdl\cmsis/include/cmsis_gcc.h ****  * @brief    CMSIS compiler GCC header file
   4:Generated_Source\PSoC6\pdl\cmsis/include/cmsis_gcc.h ****  * @version  V5.0.3
   5:Generated_Source\PSoC6\pdl\cmsis/include/cmsis_gcc.h ****  * @date     16. January 2018
   6:Generated_Source\PSoC6\pdl\cmsis/include/cmsis_gcc.h ****  ******************************************************************************/
   7:Generated_Source\PSoC6\pdl\cmsis/include/cmsis_gcc.h **** /*
   8:Generated_Source\PSoC6\pdl\cmsis/include/cmsis_gcc.h ****  * Copyright (c) 2009-2017 ARM Limited. All rights reserved.
   9:Generated_Source\PSoC6\pdl\cmsis/include/cmsis_gcc.h ****  *
  10:Generated_Source\PSoC6\pdl\cmsis/include/cmsis_gcc.h ****  * SPDX-License-Identifier: Apache-2.0
  11:Generated_Source\PSoC6\pdl\cmsis/include/cmsis_gcc.h ****  *
  12:Generated_Source\PSoC6\pdl\cmsis/include/cmsis_gcc.h ****  * Licensed under the Apache License, Version 2.0 (the License); you may
  13:Generated_Source\PSoC6\pdl\cmsis/include/cmsis_gcc.h ****  * not use this file except in compliance with the License.
  14:Generated_Source\PSoC6\pdl\cmsis/include/cmsis_gcc.h ****  * You may obtain a copy of the License at
  15:Generated_Source\PSoC6\pdl\cmsis/include/cmsis_gcc.h ****  *
  16:Generated_Source\PSoC6\pdl\cmsis/include/cmsis_gcc.h ****  * www.apache.org/licenses/LICENSE-2.0
  17:Generated_Source\PSoC6\pdl\cmsis/include/cmsis_gcc.h ****  *
  18:Generated_Source\PSoC6\pdl\cmsis/include/cmsis_gcc.h ****  * Unless required by applicable law or agreed to in writing, software
  19:Generated_Source\PSoC6\pdl\cmsis/include/cmsis_gcc.h ****  * distributed under the License is distributed on an AS IS BASIS, WITHOUT
  20:Generated_Source\PSoC6\pdl\cmsis/include/cmsis_gcc.h ****  * WARRANTIES OR CONDITIONS OF ANY KIND, either express or implied.
  21:Generated_Source\PSoC6\pdl\cmsis/include/cmsis_gcc.h ****  * See the License for the specific language governing permissions and
  22:Generated_Source\PSoC6\pdl\cmsis/include/cmsis_gcc.h ****  * limitations under the License.
ARM GAS  C:\Users\Labeo\AppData\Local\Temp\cc1FUKsk.s 			page 7


  23:Generated_Source\PSoC6\pdl\cmsis/include/cmsis_gcc.h ****  */
  24:Generated_Source\PSoC6\pdl\cmsis/include/cmsis_gcc.h **** 
  25:Generated_Source\PSoC6\pdl\cmsis/include/cmsis_gcc.h **** #ifndef __CMSIS_GCC_H
  26:Generated_Source\PSoC6\pdl\cmsis/include/cmsis_gcc.h **** #define __CMSIS_GCC_H
  27:Generated_Source\PSoC6\pdl\cmsis/include/cmsis_gcc.h **** 
  28:Generated_Source\PSoC6\pdl\cmsis/include/cmsis_gcc.h **** /* ignore some GCC warnings */
  29:Generated_Source\PSoC6\pdl\cmsis/include/cmsis_gcc.h **** #pragma GCC diagnostic push
  30:Generated_Source\PSoC6\pdl\cmsis/include/cmsis_gcc.h **** #pragma GCC diagnostic ignored "-Wsign-conversion"
  31:Generated_Source\PSoC6\pdl\cmsis/include/cmsis_gcc.h **** #pragma GCC diagnostic ignored "-Wconversion"
  32:Generated_Source\PSoC6\pdl\cmsis/include/cmsis_gcc.h **** #pragma GCC diagnostic ignored "-Wunused-parameter"
  33:Generated_Source\PSoC6\pdl\cmsis/include/cmsis_gcc.h **** 
  34:Generated_Source\PSoC6\pdl\cmsis/include/cmsis_gcc.h **** /* Fallback for __has_builtin */
  35:Generated_Source\PSoC6\pdl\cmsis/include/cmsis_gcc.h **** #ifndef __has_builtin
  36:Generated_Source\PSoC6\pdl\cmsis/include/cmsis_gcc.h ****   #define __has_builtin(x) (0)
  37:Generated_Source\PSoC6\pdl\cmsis/include/cmsis_gcc.h **** #endif
  38:Generated_Source\PSoC6\pdl\cmsis/include/cmsis_gcc.h **** 
  39:Generated_Source\PSoC6\pdl\cmsis/include/cmsis_gcc.h **** /* CMSIS compiler specific defines */
  40:Generated_Source\PSoC6\pdl\cmsis/include/cmsis_gcc.h **** #ifndef   __ASM
  41:Generated_Source\PSoC6\pdl\cmsis/include/cmsis_gcc.h ****   #define __ASM                                  __asm
  42:Generated_Source\PSoC6\pdl\cmsis/include/cmsis_gcc.h **** #endif
  43:Generated_Source\PSoC6\pdl\cmsis/include/cmsis_gcc.h **** #ifndef   __INLINE
  44:Generated_Source\PSoC6\pdl\cmsis/include/cmsis_gcc.h ****   #define __INLINE                               inline
  45:Generated_Source\PSoC6\pdl\cmsis/include/cmsis_gcc.h **** #endif
  46:Generated_Source\PSoC6\pdl\cmsis/include/cmsis_gcc.h **** #ifndef   __STATIC_INLINE
  47:Generated_Source\PSoC6\pdl\cmsis/include/cmsis_gcc.h ****   #define __STATIC_INLINE                        static inline
  48:Generated_Source\PSoC6\pdl\cmsis/include/cmsis_gcc.h **** #endif
  49:Generated_Source\PSoC6\pdl\cmsis/include/cmsis_gcc.h **** #ifndef   __STATIC_FORCEINLINE                 
  50:Generated_Source\PSoC6\pdl\cmsis/include/cmsis_gcc.h ****   #define __STATIC_FORCEINLINE                   __attribute__((always_inline)) static inline
  51:Generated_Source\PSoC6\pdl\cmsis/include/cmsis_gcc.h **** #endif                                           
  52:Generated_Source\PSoC6\pdl\cmsis/include/cmsis_gcc.h **** #ifndef   __NO_RETURN
  53:Generated_Source\PSoC6\pdl\cmsis/include/cmsis_gcc.h ****   #define __NO_RETURN                            __attribute__((__noreturn__))
  54:Generated_Source\PSoC6\pdl\cmsis/include/cmsis_gcc.h **** #endif
  55:Generated_Source\PSoC6\pdl\cmsis/include/cmsis_gcc.h **** #ifndef   __USED
  56:Generated_Source\PSoC6\pdl\cmsis/include/cmsis_gcc.h ****   #define __USED                                 __attribute__((used))
  57:Generated_Source\PSoC6\pdl\cmsis/include/cmsis_gcc.h **** #endif
  58:Generated_Source\PSoC6\pdl\cmsis/include/cmsis_gcc.h **** #ifndef   __WEAK
  59:Generated_Source\PSoC6\pdl\cmsis/include/cmsis_gcc.h ****   #define __WEAK                                 __attribute__((weak))
  60:Generated_Source\PSoC6\pdl\cmsis/include/cmsis_gcc.h **** #endif
  61:Generated_Source\PSoC6\pdl\cmsis/include/cmsis_gcc.h **** #ifndef   __PACKED
  62:Generated_Source\PSoC6\pdl\cmsis/include/cmsis_gcc.h ****   #define __PACKED                               __attribute__((packed, aligned(1)))
  63:Generated_Source\PSoC6\pdl\cmsis/include/cmsis_gcc.h **** #endif
  64:Generated_Source\PSoC6\pdl\cmsis/include/cmsis_gcc.h **** #ifndef   __PACKED_STRUCT
  65:Generated_Source\PSoC6\pdl\cmsis/include/cmsis_gcc.h ****   #define __PACKED_STRUCT                        struct __attribute__((packed, aligned(1)))
  66:Generated_Source\PSoC6\pdl\cmsis/include/cmsis_gcc.h **** #endif
  67:Generated_Source\PSoC6\pdl\cmsis/include/cmsis_gcc.h **** #ifndef   __PACKED_UNION
  68:Generated_Source\PSoC6\pdl\cmsis/include/cmsis_gcc.h ****   #define __PACKED_UNION                         union __attribute__((packed, aligned(1)))
  69:Generated_Source\PSoC6\pdl\cmsis/include/cmsis_gcc.h **** #endif
  70:Generated_Source\PSoC6\pdl\cmsis/include/cmsis_gcc.h **** #ifndef   __UNALIGNED_UINT32        /* deprecated */
  71:Generated_Source\PSoC6\pdl\cmsis/include/cmsis_gcc.h ****   #pragma GCC diagnostic push
  72:Generated_Source\PSoC6\pdl\cmsis/include/cmsis_gcc.h ****   #pragma GCC diagnostic ignored "-Wpacked"
  73:Generated_Source\PSoC6\pdl\cmsis/include/cmsis_gcc.h ****   #pragma GCC diagnostic ignored "-Wattributes"
  74:Generated_Source\PSoC6\pdl\cmsis/include/cmsis_gcc.h ****   struct __attribute__((packed)) T_UINT32 { uint32_t v; };
  75:Generated_Source\PSoC6\pdl\cmsis/include/cmsis_gcc.h ****   #pragma GCC diagnostic pop
  76:Generated_Source\PSoC6\pdl\cmsis/include/cmsis_gcc.h ****   #define __UNALIGNED_UINT32(x)                  (((struct T_UINT32 *)(x))->v)
  77:Generated_Source\PSoC6\pdl\cmsis/include/cmsis_gcc.h **** #endif
  78:Generated_Source\PSoC6\pdl\cmsis/include/cmsis_gcc.h **** #ifndef   __UNALIGNED_UINT16_WRITE
  79:Generated_Source\PSoC6\pdl\cmsis/include/cmsis_gcc.h ****   #pragma GCC diagnostic push
ARM GAS  C:\Users\Labeo\AppData\Local\Temp\cc1FUKsk.s 			page 8


  80:Generated_Source\PSoC6\pdl\cmsis/include/cmsis_gcc.h ****   #pragma GCC diagnostic ignored "-Wpacked"
  81:Generated_Source\PSoC6\pdl\cmsis/include/cmsis_gcc.h ****   #pragma GCC diagnostic ignored "-Wattributes"
  82:Generated_Source\PSoC6\pdl\cmsis/include/cmsis_gcc.h ****   __PACKED_STRUCT T_UINT16_WRITE { uint16_t v; };
  83:Generated_Source\PSoC6\pdl\cmsis/include/cmsis_gcc.h ****   #pragma GCC diagnostic pop
  84:Generated_Source\PSoC6\pdl\cmsis/include/cmsis_gcc.h ****   #define __UNALIGNED_UINT16_WRITE(addr, val)    (void)((((struct T_UINT16_WRITE *)(void *)(addr))-
  85:Generated_Source\PSoC6\pdl\cmsis/include/cmsis_gcc.h **** #endif
  86:Generated_Source\PSoC6\pdl\cmsis/include/cmsis_gcc.h **** #ifndef   __UNALIGNED_UINT16_READ
  87:Generated_Source\PSoC6\pdl\cmsis/include/cmsis_gcc.h ****   #pragma GCC diagnostic push
  88:Generated_Source\PSoC6\pdl\cmsis/include/cmsis_gcc.h ****   #pragma GCC diagnostic ignored "-Wpacked"
  89:Generated_Source\PSoC6\pdl\cmsis/include/cmsis_gcc.h ****   #pragma GCC diagnostic ignored "-Wattributes"
  90:Generated_Source\PSoC6\pdl\cmsis/include/cmsis_gcc.h ****   __PACKED_STRUCT T_UINT16_READ { uint16_t v; };
  91:Generated_Source\PSoC6\pdl\cmsis/include/cmsis_gcc.h ****   #pragma GCC diagnostic pop
  92:Generated_Source\PSoC6\pdl\cmsis/include/cmsis_gcc.h ****   #define __UNALIGNED_UINT16_READ(addr)          (((const struct T_UINT16_READ *)(const void *)(add
  93:Generated_Source\PSoC6\pdl\cmsis/include/cmsis_gcc.h **** #endif
  94:Generated_Source\PSoC6\pdl\cmsis/include/cmsis_gcc.h **** #ifndef   __UNALIGNED_UINT32_WRITE
  95:Generated_Source\PSoC6\pdl\cmsis/include/cmsis_gcc.h ****   #pragma GCC diagnostic push
  96:Generated_Source\PSoC6\pdl\cmsis/include/cmsis_gcc.h ****   #pragma GCC diagnostic ignored "-Wpacked"
  97:Generated_Source\PSoC6\pdl\cmsis/include/cmsis_gcc.h ****   #pragma GCC diagnostic ignored "-Wattributes"
  98:Generated_Source\PSoC6\pdl\cmsis/include/cmsis_gcc.h ****   __PACKED_STRUCT T_UINT32_WRITE { uint32_t v; };
  99:Generated_Source\PSoC6\pdl\cmsis/include/cmsis_gcc.h ****   #pragma GCC diagnostic pop
 100:Generated_Source\PSoC6\pdl\cmsis/include/cmsis_gcc.h ****   #define __UNALIGNED_UINT32_WRITE(addr, val)    (void)((((struct T_UINT32_WRITE *)(void *)(addr))-
 101:Generated_Source\PSoC6\pdl\cmsis/include/cmsis_gcc.h **** #endif
 102:Generated_Source\PSoC6\pdl\cmsis/include/cmsis_gcc.h **** #ifndef   __UNALIGNED_UINT32_READ
 103:Generated_Source\PSoC6\pdl\cmsis/include/cmsis_gcc.h ****   #pragma GCC diagnostic push
 104:Generated_Source\PSoC6\pdl\cmsis/include/cmsis_gcc.h ****   #pragma GCC diagnostic ignored "-Wpacked"
 105:Generated_Source\PSoC6\pdl\cmsis/include/cmsis_gcc.h ****   #pragma GCC diagnostic ignored "-Wattributes"
 106:Generated_Source\PSoC6\pdl\cmsis/include/cmsis_gcc.h ****   __PACKED_STRUCT T_UINT32_READ { uint32_t v; };
 107:Generated_Source\PSoC6\pdl\cmsis/include/cmsis_gcc.h ****   #pragma GCC diagnostic pop
 108:Generated_Source\PSoC6\pdl\cmsis/include/cmsis_gcc.h ****   #define __UNALIGNED_UINT32_READ(addr)          (((const struct T_UINT32_READ *)(const void *)(add
 109:Generated_Source\PSoC6\pdl\cmsis/include/cmsis_gcc.h **** #endif
 110:Generated_Source\PSoC6\pdl\cmsis/include/cmsis_gcc.h **** #ifndef   __ALIGNED
 111:Generated_Source\PSoC6\pdl\cmsis/include/cmsis_gcc.h ****   #define __ALIGNED(x)                           __attribute__((aligned(x)))
 112:Generated_Source\PSoC6\pdl\cmsis/include/cmsis_gcc.h **** #endif
 113:Generated_Source\PSoC6\pdl\cmsis/include/cmsis_gcc.h **** #ifndef   __RESTRICT
 114:Generated_Source\PSoC6\pdl\cmsis/include/cmsis_gcc.h ****   #define __RESTRICT                             __restrict
 115:Generated_Source\PSoC6\pdl\cmsis/include/cmsis_gcc.h **** #endif
 116:Generated_Source\PSoC6\pdl\cmsis/include/cmsis_gcc.h **** 
 117:Generated_Source\PSoC6\pdl\cmsis/include/cmsis_gcc.h **** 
 118:Generated_Source\PSoC6\pdl\cmsis/include/cmsis_gcc.h **** /* ###########################  Core Function Access  ########################### */
 119:Generated_Source\PSoC6\pdl\cmsis/include/cmsis_gcc.h **** /** \ingroup  CMSIS_Core_FunctionInterface
 120:Generated_Source\PSoC6\pdl\cmsis/include/cmsis_gcc.h ****     \defgroup CMSIS_Core_RegAccFunctions CMSIS Core Register Access Functions
 121:Generated_Source\PSoC6\pdl\cmsis/include/cmsis_gcc.h ****   @{
 122:Generated_Source\PSoC6\pdl\cmsis/include/cmsis_gcc.h ****  */
 123:Generated_Source\PSoC6\pdl\cmsis/include/cmsis_gcc.h **** 
 124:Generated_Source\PSoC6\pdl\cmsis/include/cmsis_gcc.h **** /**
 125:Generated_Source\PSoC6\pdl\cmsis/include/cmsis_gcc.h ****   \brief   Enable IRQ Interrupts
 126:Generated_Source\PSoC6\pdl\cmsis/include/cmsis_gcc.h ****   \details Enables IRQ interrupts by clearing the I-bit in the CPSR.
 127:Generated_Source\PSoC6\pdl\cmsis/include/cmsis_gcc.h ****            Can only be executed in Privileged modes.
 128:Generated_Source\PSoC6\pdl\cmsis/include/cmsis_gcc.h ****  */
 129:Generated_Source\PSoC6\pdl\cmsis/include/cmsis_gcc.h **** __STATIC_FORCEINLINE void __enable_irq(void)
 130:Generated_Source\PSoC6\pdl\cmsis/include/cmsis_gcc.h **** {
 131:Generated_Source\PSoC6\pdl\cmsis/include/cmsis_gcc.h ****   __ASM volatile ("cpsie i" : : : "memory");
 162              		.loc 2 131 0
 163              		.syntax unified
 164              	@ 131 "Generated_Source\PSoC6\pdl\cmsis/include/cmsis_gcc.h" 1
 165 0002 62B6     		cpsie i
 166              	@ 0 "" 2
ARM GAS  C:\Users\Labeo\AppData\Local\Temp\cc1FUKsk.s 			page 9


 167              		.thumb
 168              		.syntax unified
 169              	.LBE5:
 170              	.LBE4:
 160:main_cm4.c    ****     
 161:main_cm4.c    ****     __enable_irq(); /* Enable global interrupts. */
 162:main_cm4.c    ****     
 163:main_cm4.c    ****     /* Initialize emWin Graphics */
 164:main_cm4.c    ****     GUI_Init();
 171              		.loc 1 164 0
 172 0004 FFF7FEFF 		bl	GUI_Init
 173              	.LVL13:
 165:main_cm4.c    **** 
 166:main_cm4.c    ****     /* Start the eInk display interface and turn on the display power */
 167:main_cm4.c    ****     Cy_EINK_Start(20);
 174              		.loc 1 167 0
 175 0008 1420     		movs	r0, #20
 176 000a FFF7FEFF 		bl	Cy_EINK_Start
 177              	.LVL14:
 168:main_cm4.c    ****     Cy_EINK_Power(1);
 178              		.loc 1 168 0
 179 000e 0120     		movs	r0, #1
 180 0010 FFF7FEFF 		bl	Cy_EINK_Power
 181              	.LVL15:
 169:main_cm4.c    ****     
 170:main_cm4.c    ****     GUI_SetPenSize(1);
 182              		.loc 1 170 0
 183 0014 0120     		movs	r0, #1
 184 0016 FFF7FEFF 		bl	GUI_SetPenSize
 185              	.LVL16:
 171:main_cm4.c    ****     GUI_SetColor(GUI_BLACK);
 186              		.loc 1 171 0
 187 001a 0020     		movs	r0, #0
 188 001c FFF7FEFF 		bl	GUI_SetColor
 189              	.LVL17:
 172:main_cm4.c    ****     GUI_SetBkColor(GUI_WHITE);
 190              		.loc 1 172 0
 191 0020 6FF07F40 		mvn	r0, #-16777216
 192 0024 FFF7FEFF 		bl	GUI_SetBkColor
 193              	.LVL18:
 173:main_cm4.c    ****     GUI_Clear();
 194              		.loc 1 173 0
 195 0028 FFF7FEFF 		bl	GUI_Clear
 196              	.LVL19:
 174:main_cm4.c    ****     
 175:main_cm4.c    ****     //Draw a rectangle
 176:main_cm4.c    ****     GUI_DrawRect(1,1,263,175);
 197              		.loc 1 176 0
 198 002c AF23     		movs	r3, #175
 199 002e 40F20712 		movw	r2, #263
 200 0032 0121     		movs	r1, #1
 201 0034 0846     		mov	r0, r1
 202 0036 FFF7FEFF 		bl	GUI_DrawRect
 203              	.LVL20:
 177:main_cm4.c    ****     
 178:main_cm4.c    ****     //Draw a line
 179:main_cm4.c    ****     GUI_SetPenSize(4);
ARM GAS  C:\Users\Labeo\AppData\Local\Temp\cc1FUKsk.s 			page 10


 204              		.loc 1 179 0
 205 003a 0420     		movs	r0, #4
 206 003c FFF7FEFF 		bl	GUI_SetPenSize
 207              	.LVL21:
 180:main_cm4.c    ****     GUI_DrawLine(20,65,243,65);
 208              		.loc 1 180 0
 209 0040 4123     		movs	r3, #65
 210 0042 F322     		movs	r2, #243
 211 0044 1946     		mov	r1, r3
 212 0046 1420     		movs	r0, #20
 213 0048 FFF7FEFF 		bl	GUI_DrawLine
 214              	.LVL22:
 181:main_cm4.c    ****     
 182:main_cm4.c    ****     GUI_SetColor(GUI_BLACK);
 215              		.loc 1 182 0
 216 004c 0020     		movs	r0, #0
 217 004e FFF7FEFF 		bl	GUI_SetColor
 218              	.LVL23:
 183:main_cm4.c    ****     GUI_SetBkColor(GUI_WHITE);
 219              		.loc 1 183 0
 220 0052 6FF07F40 		mvn	r0, #-16777216
 221 0056 FFF7FEFF 		bl	GUI_SetBkColor
 222              	.LVL24:
 184:main_cm4.c    ****     
 185:main_cm4.c    ****    //Write a title and subtile	
 186:main_cm4.c    ****     GUI_SetFont(GUI_FONT_32B_1);
 223              		.loc 1 186 0
 224 005a 0C48     		ldr	r0, .L14
 225 005c FFF7FEFF 		bl	GUI_SetFont
 226              	.LVL25:
 187:main_cm4.c    ****     GUI_SetTextAlign(GUI_TA_CENTER);
 227              		.loc 1 187 0
 228 0060 0220     		movs	r0, #2
 229 0062 FFF7FEFF 		bl	GUI_SetTextAlign
 230              	.LVL26:
 188:main_cm4.c    ****     GUI_DispStringAt("GBM2100", 132, 30);
 231              		.loc 1 188 0
 232 0066 1E22     		movs	r2, #30
 233 0068 8421     		movs	r1, #132
 234 006a 0948     		ldr	r0, .L14+4
 235 006c FFF7FEFF 		bl	GUI_DispStringAt
 236              	.LVL27:
 189:main_cm4.c    ****     GUI_SetFont(GUI_FONT_16_1);
 237              		.loc 1 189 0
 238 0070 0848     		ldr	r0, .L14+8
 239 0072 FFF7FEFF 		bl	GUI_SetFont
 240              	.LVL28:
 190:main_cm4.c    ****     GUI_DispStringAt("Laboratoire 3", 132, 70);
 241              		.loc 1 190 0
 242 0076 4622     		movs	r2, #70
 243 0078 8421     		movs	r1, #132
 244 007a 0748     		ldr	r0, .L14+12
 245 007c FFF7FEFF 		bl	GUI_DispStringAt
 246              	.LVL29:
 191:main_cm4.c    ****     
 192:main_cm4.c    ****     UpdateDisplay(CY_EINK_FULL_4STAGE, true);
 247              		.loc 1 192 0
ARM GAS  C:\Users\Labeo\AppData\Local\Temp\cc1FUKsk.s 			page 11


 248 0080 0121     		movs	r1, #1
 249 0082 0846     		mov	r0, r1
 250 0084 FFF7FEFF 		bl	UpdateDisplay
 251              	.LVL30:
 252              	.L12:
 253 0088 FEE7     		b	.L12
 254              	.L15:
 255 008a 00BF     		.align	2
 256              	.L14:
 257 008c 00000000 		.word	GUI_Font32B_1
 258 0090 00000000 		.word	.LC0
 259 0094 00000000 		.word	GUI_Font16_1
 260 0098 08000000 		.word	.LC1
 261              		.cfi_endproc
 262              	.LFE560:
 263              		.size	main, .-main
 264              		.global	imageBufferCache
 265              		.global	vectorSinus
 266              		.data
 267              		.align	2
 268              		.type	vectorSinus, %object
 269              		.size	vectorSinus, 500
 270              	vectorSinus:
 271 0000 3E75CC3D 		.word	1036809534
 272 0004 664E973E 		.word	1050103398
 273 0008 D977F53E 		.word	1056274393
 274 000c 9AEB243F 		.word	1059384218
 275 0010 5188483F 		.word	1061718097
 276 0014 5726643F 		.word	1063528023
 277 0018 DEAB763F 		.word	1064741854
 278 001c 815B7F3F 		.word	1065311105
 279 0020 6EDD7D3F 		.word	1065213294
 280 0024 B840723F 		.word	1064452280
 281 0028 55FB5C3F 		.word	1063058261
 282 002c DAE63E3F 		.word	1061086938
 283 0030 5435193F 		.word	1058616660
 284 0034 8DD1DA3E 		.word	1054527885
 285 0038 F4FD743E 		.word	1047854580
 286 003c D7502A3D 		.word	1026183383
 287 0040 378921BE 		.word	-1105098441
 288 0044 7099B3BE 		.word	-1095526032
 289 0048 98A307BF 		.word	-1090018408
 290 004c B21130BF 		.word	-1087368782
 291 0050 CC7A51BF 		.word	-1085179188
 292 0054 1E8A6ABF 		.word	-1083536866
 293 0058 683F7ABF 		.word	-1082507416
 294 005c C2FA7FBF 		.word	-1082131774
 295 0060 D8817BBF 		.word	-1082424872
 296 0064 E2016DBF 		.word	-1083375134
 297 0068 A60F55BF 		.word	-1084944474
 298 006c 459E34BF 		.word	-1087070651
 299 0070 05FA0CBF 		.word	-1089668603
 300 0074 336DBFBE 		.word	-1094750925
 301 0078 27883ABE 		.word	-1103460313
 302 007c 84BD893C 		.word	1015659908
 303 0080 6B485C3E 		.word	1046235243
 304 0084 8048CF3E 		.word	1053771904
ARM GAS  C:\Users\Labeo\AppData\Local\Temp\cc1FUKsk.s 			page 12


 305 0088 A514143F 		.word	1058280613
 306 008c C79D3A3F 		.word	1060806087
 307 0090 70B6593F 		.word	1062844016
 308 0094 C520703F 		.word	1064313029
 309 0098 B6F87C3F 		.word	1065154742
 310 009c 88BA7F3F 		.word	1065335432
 311 00a0 B64A783F 		.word	1064848054
 312 00a4 9DF4663F 		.word	1063711901
 313 00a8 D7694C3F 		.word	1061972439
 314 00ac 67B8293F 		.word	1059698791
 315 00b0 D942003F 		.word	1056981721
 316 00b4 1361A33E 		.word	1050894611
 317 00b8 A4DFFE3D 		.word	1040113572
 318 00bc C4E899BD 		.word	-1113986876
 319 00c0 20248BBE 		.word	-1098177504
 320 00c4 AF42EABE 		.word	-1091943761
 321 00c8 960420BF 		.word	-1088420714
 322 00cc 558744BF 		.word	-1086027947
 323 00d0 053461BF 		.word	-1084148731
 324 00d4 5CE674BF 		.word	-1082857892
 325 00d8 28D57EBF 		.word	-1082206936
 326 00dc D49A7EBF 		.word	-1082221868
 327 00e0 A83A74BF 		.word	-1082901848
 328 00e4 7E1D60BF 		.word	-1084220034
 329 00e8 1F1143BF 		.word	-1086123745
 330 00ec 6C3E1EBF 		.word	-1088536980
 331 00f0 8638E6BE 		.word	-1092208506
 332 00f4 15C686BE 		.word	-1098463723
 333 00f8 D4D387BD 		.word	-1115171884
 334 00fc 726D083E 		.word	1040739698
 335 0100 26AAA73E 		.word	1051175462
 336 0104 8B37023F 		.word	1057109899
 337 0108 F1682B3F 		.word	1059809521
 338 010c 87C44D3F 		.word	1062061191
 339 0110 57EC673F 		.word	1063775319
 340 0114 A6D5783F 		.word	1064883622
 341 0118 C8D27F3F 		.word	1065341640
 342 011c F59C7C3F 		.word	1065131253
 343 0120 9B556F3F 		.word	1064261019
 344 0124 1283583F 		.word	1062765330
 345 0128 AA0E393F 		.word	1060703914
 346 012c 2A3A123F 		.word	1058159146
 347 0130 8121CB3E 		.word	1053499777
 348 0134 DF6C533E 		.word	1045654751
 349 0138 1578023C 		.word	1006794773
 350 013c CE7043BE 		.word	-1102876466
 351 0140 AE9EC3BE 		.word	-1094476114
 352 0144 5DDC0EBF 		.word	-1089545123
 353 0148 DF3736BF 		.word	-1086965793
 354 014c CF4E56BF 		.word	-1084862769
 355 0150 CFDA6DBF 		.word	-1083319601
 356 0154 03EC7BBF 		.word	-1082397693
 357 0158 EDF07FBF 		.word	-1082134291
 358 015c E3C279BF 		.word	-1082539293
 359 0160 D89E69BF 		.word	-1083597096
 360 0164 412B50BF 		.word	-1085265087
 361 0168 556A2EBF 		.word	-1087477163
ARM GAS  C:\Users\Labeo\AppData\Local\Temp\cc1FUKsk.s 			page 13


 362 016c 1CB605BF 		.word	-1090144740
 363 0170 8A59AFBE 		.word	-1095804534
 364 0174 759318BE 		.word	-1105685643
 365 0178 59884E3D 		.word	1028556889
 366 017c 26C77D3E 		.word	1048430374
 367 0180 D1E8DE3E 		.word	1054795985
 368 0184 AB041B3F 		.word	1058735275
 369 0188 E466403F 		.word	1061185252
 370 018c A81D5E3F 		.word	1063132584
 371 0190 87F9723F 		.word	1064499591
 372 0194 2D267E3F 		.word	1065231917
 373 0198 40307F3F 		.word	1065300032
 374 019c ED0D763F 		.word	1064701421
 375 01a0 EB1C633F 		.word	1063460075
 376 01a4 3F1D473F 		.word	1061625151
 377 01a8 F52D233F 		.word	1059270133
 378 01ac CC7AF13E 		.word	1056013004
 379 01b0 38F8923E 		.word	1049819192
 380 01b4 BE69BA3D 		.word	1035626942
 381 01b8 A67EDEBD 		.word	-1109492058
 382 01bc A5A09BBE 		.word	-1097097051
 383 01c0 596EF9BE 		.word	-1090949543
 384 01c4 51A526BF 		.word	-1087986351
 385 01c8 CCEE49BF 		.word	-1085673780
 386 01cc 2C2B65BF 		.word	-1083888852
 387 01d0 914477BF 		.word	-1082702703
 388 01d4 2C827FBF 		.word	-1082162644
 389 01d8 C1907DBF 		.word	-1082289983
 390 01dc AA8271BF 		.word	-1083080022
 391 01e0 6BD45BBF 		.word	-1084500885
 392 01e4 39623DBF 		.word	-1086496199
 393 01e8 5E6317BF 		.word	-1088986274
 394 01ec 5BB6D6BE 		.word	-1093224869
 395 01f0 832F6CBE 		.word	-1100206205
 396              		.section	.rodata.str1.4,"aMS",%progbits,1
 397              		.align	2
 398              	.LC0:
 399 0000 47424D32 		.ascii	"GBM2100\000"
 399      31303000 
 400              	.LC1:
 401 0008 4C61626F 		.ascii	"Laboratoire 3\000"
 401      7261746F 
 401      69726520 
 401      3300
 402              		.bss
 403              		.align	2
 404              		.set	.LANCHOR0,. + 0
 405              		.type	imageBufferCache, %object
 406              		.size	imageBufferCache, 5808
 407              	imageBufferCache:
 408 0000 00000000 		.space	5808
 408      00000000 
 408      00000000 
 408      00000000 
 408      00000000 
 409              		.text
 410              	.Letext0:
ARM GAS  C:\Users\Labeo\AppData\Local\Temp\cc1FUKsk.s 			page 14


 411              		.file 3 "c:\\program files (x86)\\cypress\\psoc creator\\4.4\\psoc creator\\import\\gnu\\arm\\5.4.
 412              		.file 4 "c:\\program files (x86)\\cypress\\psoc creator\\4.4\\psoc creator\\import\\gnu\\arm\\5.4.
 413              		.file 5 "Generated_Source\\PSoC6\\pdl\\drivers/peripheral/device/cy_device.h"
 414              		.file 6 "Generated_Source\\PSoC6\\pdl\\drivers/peripheral/syslib/cy_syslib.h"
 415              		.file 7 "Generated_Source\\PSoC6\\pdl\\drivers/peripheral/scb/cy_scb_spi.h"
 416              		.file 8 "Generated_Source\\PSoC6\\pdl\\drivers/peripheral/tcpwm/cy_tcpwm_counter.h"
 417              		.file 9 "Generated_Source\\PSoC6\\pdl\\middleware/emWin/code/include/GUI_Type.h"
 418              		.file 10 ".\\eInk Library/pervasive_eink_hardware_driver.h"
 419              		.file 11 ".\\eInk Library/cy_eink_library.h"
 420              		.file 12 "Generated_Source\\PSoC6\\pdl\\cmsis/include/core_cm4.h"
 421              		.file 13 "Generated_Source\\PSoC6/CY_EINK_SPIM.h"
 422              		.file 14 "Generated_Source\\PSoC6/CY_EINK_Timer.h"
 423              		.file 15 "Generated_Source\\PSoC6\\pdl\\middleware/emWin/code/include/GUI.h"
 424              		.file 16 "LCDConf.h"
 425              		.file 17 "Generated_Source\\PSoC6/Status_SW2.h"